; Function Attrs: mustprogress nounwind uwtable
define dso_local noundef nonnull align 8 dereferenceable(48) ptr @_ZN4llvm5MachOlsERNS_11raw_ostreamENS0_12ArchitectureE(ptr noundef nonnull returned align 8 dereferenceable(48) %0, i8 noundef zeroext %1) local_unnamed_addr #3 {
  %3 = icmp ult i8 %1, 16
  br i1 %3, label %switch.lookup, label %_ZN4llvm5MachO19getArchitectureNameENS0_12ArchitectureE.exit

switch.lookup:                                    ; preds = %2
  %4 = zext nneg i8 %1 to i64
  %switch.gep = getelementptr inbounds [16 x i64], ptr @switch.table._ZN4llvm5MachOlsERNS_11raw_ostreamENS0_12ArchitectureE, i64 0, i64 %4
  %switch.load = load i64, ptr %switch.gep, align 8
  %5 = zext nneg i8 %1 to i64
  %switch.gep2 = getelementptr inbounds [16 x ptr], ptr @switch.table._ZN4llvm5MachOlsERNS_11raw_ostreamENS0_12ArchitectureE.3, i64 0, i64 %5
  %switch.load3 = load ptr, ptr %switch.gep2, align 8
  br label %_ZN4llvm5MachO19getArchitectureNameENS0_12ArchitectureE.exit

_ZN4llvm5MachO19getArchitectureNameENS0_12ArchitectureE.exit: ; preds = %2, %switch.lookup
  %.sroa.18.0.i = phi i64 [ %switch.load, %switch.lookup ], [ 7, %2 ]
  %.sroa.0.0.i = phi ptr [ %switch.load3, %switch.lookup ], [ @.str.15, %2 ]
  %6 = getelementptr inbounds nuw i8, ptr %0, i64 24
  %7 = load ptr, ptr %6, align 8
  %8 = getelementptr inbounds nuw i8, ptr %0, i64 32
  %9 = load ptr, ptr %8, align 8
  %10 = ptrtoint ptr %7 to i64
  %11 = ptrtoint ptr %9 to i64
  %12 = sub i64 %10, %11
  %13 = icmp ugt i64 %.sroa.18.0.i, %12
  br i1 %13, label %14, label %16

14:                                               ; preds = %_ZN4llvm5MachO19getArchitectureNameENS0_12ArchitectureE.exit
  %15 = tail call noundef nonnull align 8 dereferenceable(48) ptr @_ZN4llvm11raw_ostream5writeEPKcm(ptr noundef nonnull align 8 dereferenceable(48) %0, ptr noundef nonnull %.sroa.0.0.i, i64 noundef %.sroa.18.0.i) #6
  br label %_ZN4llvm11raw_ostreamlsENS_9StringRefE.exit

16:                                               ; preds = %_ZN4llvm5MachO19getArchitectureNameENS0_12ArchitectureE.exit
  tail call void @llvm.memcpy.p0.p0.i64(ptr noundef nonnull align 1 dereferenceable(1) %9, ptr noundef nonnull align 1 dereferenceable(1) %.sroa.0.0.i, i64 %.sroa.18.0.i, i1 false)
  %17 = load ptr, ptr %8, align 8
  %18 = getelementptr inbounds i8, ptr %17, i64 %.sroa.18.0.i
  store ptr %18, ptr %8, align 8
  br label %_ZN4llvm11raw_ostreamlsENS_9StringRefE.exit

_ZN4llvm11raw_ostreamlsENS_9StringRefE.exit:      ; preds = %14, %16
  ret ptr %0
}